; Function Attrs: nounwind uwtable
define internal noundef ptr @warnings_filters_mutated_lock_held(ptr readnone captures(none) %0, ptr readnone captures(none) %1) #0 {
  %3 = tail call align 8 ptr @llvm.threadlocal.address.p0(ptr align 8 @_Py_tss_tstate)
  %4 = load ptr, ptr %3, align 8, !tbaa !27
  %5 = getelementptr inbounds nuw i8, ptr %4, i64 16
  %6 = load ptr, ptr %5, align 8, !tbaa !29
  %7 = icmp eq ptr %6, null
  br i1 %7, label %get_current_interp.exit.thread.i, label %get_current_interp.exit.i

get_current_interp.exit.thread.i:                 ; preds = %2
  %8 = load ptr, ptr @PyExc_RuntimeError, align 8, !tbaa !14
  tail call void @PyErr_SetString(ptr noundef %8, ptr noundef nonnull @.str.7) #7
  br label %warnings_filters_mutated_lock_held_impl.exit

get_current_interp.exit.i:                        ; preds = %2
  %9 = getelementptr inbounds nuw i8, ptr %6, i64 10696
  %10 = load atomic i8, ptr %9 seq_cst, align 1
  %11 = and i8 %10, 1
  %.not.i = icmp eq i8 %11, 0
  br i1 %.not.i, label %12, label %14

12:                                               ; preds = %get_current_interp.exit.i
  %13 = load ptr, ptr @PyExc_RuntimeError, align 8, !tbaa !14
  tail call void @PyErr_SetString(ptr noundef %13, ptr noundef nonnull @.str.50) #7
  br label %warnings_filters_mutated_lock_held_impl.exit

14:                                               ; preds = %get_current_interp.exit.i
  %15 = getelementptr inbounds nuw i8, ptr %6, i64 10720
  %16 = load i64, ptr %15, align 8, !tbaa !26
  %17 = add i64 %16, 1
  store i64 %17, ptr %15, align 8, !tbaa !26
  br label %warnings_filters_mutated_lock_held_impl.exit

warnings_filters_mutated_lock_held_impl.exit:     ; preds = %get_current_interp.exit.thread.i, %12, %14
  %.0.i = phi ptr [ @_Py_NoneStruct, %14 ], [ null, %12 ], [ null, %get_current_interp.exit.thread.i ]
  ret ptr %.0.i
}